; Function Attrs: null_pointer_is_valid sspstrong uwtable
define internal void @decode_longint_attribute(ptr noundef %0, ptr noundef %1, ptr noundef %2, ptr noundef %3, ptr noundef readonly captures(none) %4, i32 noundef %5, i32 noundef %6) #0 {
  %8 = icmp slt i32 %6, 8
  br i1 %8, label %9, label %11

9:                                                ; preds = %7
  %10 = tail call ptr @expert_add_info(ptr noundef %1, ptr noundef %3, ptr noundef nonnull @ei_opsi_short_attribute)
  br label %15

11:                                               ; preds = %7
  %12 = load i32, ptr %4, align 4
  %13 = add i32 %5, 4
  %14 = tail call ptr @proto_tree_add_item(ptr noundef %2, i32 noundef %12, ptr noundef %0, i32 noundef %13, i32 noundef 4, i32 noundef 0)
  br label %15

15:                                               ; preds = %11, %9
  ret void
}